target datalayout = "e-m:e-p270:32:32-p271:32:32-p272:64:64-i64:64-i128:128-f80:128-n8:16:32:64-S128"
target triple = "x86_64-pc-linux-gnu"

$_ZNSt9exceptionC2B8ne210000Ev = comdat any

@.str = private unnamed_addr constant [15 x i8] c"std::exception\00", align 1
@.str.1 = private unnamed_addr constant [19 x i8] c"std::bad_exception\00", align 1
@_ZTVSt9bad_alloc = dso_local unnamed_addr constant { [5 x ptr] } { [5 x ptr] [ptr null, ptr @_ZTISt9bad_alloc, ptr @_ZNSt9bad_allocD1Ev, ptr @_ZNSt9bad_allocD0Ev, ptr @_ZNKSt9bad_alloc4whatEv] }, align 8
@.str.2 = private unnamed_addr constant [15 x i8] c"std::bad_alloc\00", align 1
@_ZTVSt20bad_array_new_length = dso_local unnamed_addr constant { [5 x ptr] } { [5 x ptr] [ptr null, ptr @_ZTISt20bad_array_new_length, ptr @_ZNSt20bad_array_new_lengthD1Ev, ptr @_ZNSt20bad_array_new_lengthD0Ev, ptr @_ZNKSt20bad_array_new_length4whatEv] }, align 8
@.str.3 = private unnamed_addr constant [21 x i8] c"bad_array_new_length\00", align 1
@_ZTVSt9exception = dso_local unnamed_addr constant { [5 x ptr] } { [5 x ptr] [ptr null, ptr @_ZTISt9exception, ptr @_ZNSt9exceptionD1Ev, ptr @_ZNSt9exceptionD0Ev, ptr @_ZNKSt9exception4whatEv] }, align 8
@_ZTISt9exception = dso_local constant { ptr, ptr } { ptr getelementptr inbounds (ptr, ptr @_ZTVN10__cxxabiv117__class_type_infoE, i64 2), ptr @_ZTSSt9exception }, align 8
@_ZTVN10__cxxabiv117__class_type_infoE = external global [0 x ptr]
@_ZTSSt9exception = dso_local constant [13 x i8] c"St9exception\00", align 1
@_ZTVSt13bad_exception = dso_local unnamed_addr constant { [5 x ptr] } { [5 x ptr] [ptr null, ptr @_ZTISt13bad_exception, ptr @_ZNSt13bad_exceptionD1Ev, ptr @_ZNSt13bad_exceptionD0Ev, ptr @_ZNKSt13bad_exception4whatEv] }, align 8
@_ZTISt13bad_exception = dso_local constant { ptr, ptr, ptr } { ptr getelementptr inbounds (ptr, ptr @_ZTVN10__cxxabiv120__si_class_type_infoE, i64 2), ptr @_ZTSSt13bad_exception, ptr @_ZTISt9exception }, align 8
@_ZTVN10__cxxabiv120__si_class_type_infoE = external global [0 x ptr]
@_ZTSSt13bad_exception = dso_local constant [18 x i8] c"St13bad_exception\00", align 1
@_ZTISt20bad_array_new_length = dso_local constant { ptr, ptr, ptr } { ptr getelementptr inbounds (ptr, ptr @_ZTVN10__cxxabiv120__si_class_type_infoE, i64 2), ptr @_ZTSSt20bad_array_new_length, ptr @_ZTISt9bad_alloc }, align 8
@_ZTSSt20bad_array_new_length = dso_local constant [25 x i8] c"St20bad_array_new_length\00", align 1
@_ZTISt9bad_alloc = dso_local constant { ptr, ptr, ptr } { ptr getelementptr inbounds (ptr, ptr @_ZTVN10__cxxabiv120__si_class_type_infoE, i64 2), ptr @_ZTSSt9bad_alloc, ptr @_ZTISt9exception }, align 8
@_ZTSSt9bad_alloc = dso_local constant [13 x i8] c"St9bad_alloc\00", align 1

@_ZNSt9exceptionD1Ev = dso_local unnamed_addr alias void (ptr), ptr @_ZNSt9exceptionD2Ev
@_ZNSt13bad_exceptionD2Ev = dso_local unnamed_addr alias void (ptr), ptr @_ZNSt9exceptionD2Ev
@_ZNSt13bad_exceptionD1Ev = dso_local unnamed_addr alias void (ptr), ptr @_ZNSt13bad_exceptionD2Ev
@_ZNSt9bad_allocC1Ev = dso_local unnamed_addr alias void (ptr), ptr @_ZNSt9bad_allocC2Ev
@_ZNSt9bad_allocD2Ev = dso_local unnamed_addr alias void (ptr), ptr @_ZNSt9exceptionD2Ev
@_ZNSt9bad_allocD1Ev = dso_local unnamed_addr alias void (ptr), ptr @_ZNSt9bad_allocD2Ev
@_ZNSt20bad_array_new_lengthC1Ev = dso_local unnamed_addr alias void (ptr), ptr @_ZNSt20bad_array_new_lengthC2Ev
@_ZNSt20bad_array_new_lengthD2Ev = dso_local unnamed_addr alias void (ptr), ptr @_ZNSt9bad_allocD2Ev
@_ZNSt20bad_array_new_lengthD1Ev = dso_local unnamed_addr alias void (ptr), ptr @_ZNSt20bad_array_new_lengthD2Ev

; Function Attrs: mustprogress nounwind uwtable
define dso_local void @_ZNSt9exceptionD2Ev(ptr noundef nonnull align 8 dereferenceable(8) %0) unnamed_addr #0 align 2 {
  %2 = alloca ptr, align 8
  store ptr %0, ptr %2, align 8, !tbaa !4
  ret void
}

; Function Attrs: mustprogress nounwind uwtable
define dso_local void @_ZNSt9exceptionD0Ev(ptr noundef nonnull align 8 dereferenceable(8) %0) unnamed_addr #0 align 2 {
  %2 = alloca ptr, align 8
  store ptr %0, ptr %2, align 8, !tbaa !4
  %3 = load ptr, ptr %2, align 8
  call void @_ZNSt9exceptionD1Ev(ptr noundef nonnull align 8 dereferenceable(8) %3) #2
  call void @_ZdlPvm(ptr noundef %3, i64 noundef 8) #3
  ret void
}

; Function Attrs: nobuiltin nounwind
declare void @_ZdlPvm(ptr noundef, i64 noundef) #1

; Function Attrs: mustprogress nounwind uwtable
define dso_local noundef ptr @_ZNKSt9exception4whatEv(ptr noundef nonnull align 8 dereferenceable(8) %0) unnamed_addr #0 align 2 {
  %2 = alloca ptr, align 8
  store ptr %0, ptr %2, align 8, !tbaa !4
  ret ptr @.str
}

; Function Attrs: mustprogress nounwind uwtable
define dso_local void @_ZNSt13bad_exceptionD0Ev(ptr noundef nonnull align 8 dereferenceable(8) %0) unnamed_addr #0 align 2 {
  %2 = alloca ptr, align 8
  store ptr %0, ptr %2, align 8, !tbaa !9
  %3 = load ptr, ptr %2, align 8
  call void @_ZNSt13bad_exceptionD1Ev(ptr noundef nonnull align 8 dereferenceable(8) %3) #2
  call void @_ZdlPvm(ptr noundef %3, i64 noundef 8) #3
  ret void
}

; Function Attrs: mustprogress nounwind uwtable
define dso_local noundef ptr @_ZNKSt13bad_exception4whatEv(ptr noundef nonnull align 8 dereferenceable(8) %0) unnamed_addr #0 align 2 {
  %2 = alloca ptr, align 8
  store ptr %0, ptr %2, align 8, !tbaa !9
  ret ptr @.str.1
}

; Function Attrs: mustprogress nounwind uwtable
define dso_local void @_ZNSt9bad_allocC2Ev(ptr noundef nonnull align 8 dereferenceable(8) %0) unnamed_addr #0 align 2 {
  %2 = alloca ptr, align 8
  store ptr %0, ptr %2, align 8, !tbaa !11
  %3 = load ptr, ptr %2, align 8
  call void @_ZNSt9exceptionC2B8ne210000Ev(ptr noundef nonnull align 8 dereferenceable(8) %3) #2
  store ptr getelementptr inbounds inrange(-16, 24) ({ [5 x ptr] }, ptr @_ZTVSt9bad_alloc, i32 0, i32 0, i32 2), ptr %3, align 8, !tbaa !13
  ret void
}

; Function Attrs: mustprogress nounwind uwtable
define linkonce_odr hidden void @_ZNSt9exceptionC2B8ne210000Ev(ptr noundef nonnull align 8 dereferenceable(8) %0) unnamed_addr #0 comdat align 2 {
  %2 = alloca ptr, align 8
  store ptr %0, ptr %2, align 8, !tbaa !4
  %3 = load ptr, ptr %2, align 8
  store ptr getelementptr inbounds inrange(-16, 24) ({ [5 x ptr] }, ptr @_ZTVSt9exception, i32 0, i32 0, i32 2), ptr %3, align 8, !tbaa !13
  ret void
}

; Function Attrs: mustprogress nounwind uwtable
define dso_local void @_ZNSt9bad_allocD0Ev(ptr noundef nonnull align 8 dereferenceable(8) %0) unnamed_addr #0 align 2 {
  %2 = alloca ptr, align 8
  store ptr %0, ptr %2, align 8, !tbaa !11
  %3 = load ptr, ptr %2, align 8
  call void @_ZNSt9bad_allocD1Ev(ptr noundef nonnull align 8 dereferenceable(8) %3) #2
  call void @_ZdlPvm(ptr noundef %3, i64 noundef 8) #3
  ret void
}

; Function Attrs: mustprogress nounwind uwtable
define dso_local noundef ptr @_ZNKSt9bad_alloc4whatEv(ptr noundef nonnull align 8 dereferenceable(8) %0) unnamed_addr #0 align 2 {
  %2 = alloca ptr, align 8
  store ptr %0, ptr %2, align 8, !tbaa !11
  ret ptr @.str.2
}

; Function Attrs: mustprogress nounwind uwtable
define dso_local void @_ZNSt20bad_array_new_lengthC2Ev(ptr noundef nonnull align 8 dereferenceable(8) %0) unnamed_addr #0 align 2 {
  %2 = alloca ptr, align 8
  store ptr %0, ptr %2, align 8, !tbaa !15
  %3 = load ptr, ptr %2, align 8
  call void @_ZNSt9bad_allocC2Ev(ptr noundef nonnull align 8 dereferenceable(8) %3) #2
  store ptr getelementptr inbounds inrange(-16, 24) ({ [5 x ptr] }, ptr @_ZTVSt20bad_array_new_length, i32 0, i32 0, i32 2), ptr %3, align 8, !tbaa !13
  ret void
}

; Function Attrs: mustprogress nounwind uwtable
define dso_local void @_ZNSt20bad_array_new_lengthD0Ev(ptr noundef nonnull align 8 dereferenceable(8) %0) unnamed_addr #0 align 2 {
  %2 = alloca ptr, align 8
  store ptr %0, ptr %2, align 8, !tbaa !15
  %3 = load ptr, ptr %2, align 8
  call void @_ZNSt20bad_array_new_lengthD1Ev(ptr noundef nonnull align 8 dereferenceable(8) %3) #2
  call void @_ZdlPvm(ptr noundef %3, i64 noundef 8) #3
  ret void
}

; Function Attrs: mustprogress nounwind uwtable
define dso_local noundef ptr @_ZNKSt20bad_array_new_length4whatEv(ptr noundef nonnull align 8 dereferenceable(8) %0) unnamed_addr #0 align 2 {
  %2 = alloca ptr, align 8
  store ptr %0, ptr %2, align 8, !tbaa !15
  ret ptr @.str.3
}


!llvm.linker.options = !{}
!llvm.module.flags = !{!0, !1, !2, !3}

!0 = !{i32 1, !"wchar_size", i32 4}
!1 = !{i32 8, !"PIC Level", i32 2}
!2 = !{i32 7, !"PIE Level", i32 2}
!3 = !{i32 7, !"uwtable", i32 2}
!4 = !{!5, !5, i64 0}
!5 = !{!"p1 _ZTSSt9exception", !6, i64 0}
!6 = !{!"any pointer", !7, i64 0}
!7 = !{!"omnipotent char", !8, i64 0}
!8 = !{!"Simple C++ TBAA"}
!9 = !{!10, !10, i64 0}
!10 = !{!"p1 _ZTSSt13bad_exception", !6, i64 0}
!11 = !{!12, !12, i64 0}
!12 = !{!"p1 _ZTSSt9bad_alloc", !6, i64 0}
!13 = !{!14, !14, i64 0}
!14 = !{!"vtable pointer", !8, i64 0}
!15 = !{!16, !16, i64 0}
!16 = !{!"p1 _ZTSSt20bad_array_new_length", !6, i64 0}
